target datalayout = "e-m:e-p270:32:32-p271:32:32-p272:64:64-i64:64-i128:128-f80:128-n8:16:32:64-S128"
target triple = "x86_64-pc-linux-gnu"

%struct.DCALbrDecoder = type { ptr, %struct.GetBitContext, i32, i32, i32, i32, i32, i32, i32, i32, i32, i32, i32, i32, i32, i32, i32, i32, i32, i32, i32, [3 x [32 x i8]], [32 x i8], [3 x [32 x i8]], [3 x [32 x i8]], [6 x i32], [6 x [12 x [8 x i8]]], [6 x [3 x [64 x i8]]], [6 x [28 x i8]], [6 x [28 x [8 x i8]]], [6 x i32], [6 x [32 x [8 x i8]]], [6 x [8 x [5 x i8]]], i8, [2 x [6 x [3 x [2 x [8 x float]]]]], [32 x float], [6 x [32 x ptr]], ptr, i32, [4 x i8], [6 x [128 x float]], [128 x float], [64 x float], [5 x [2 x float]], float, [6 x i8], [5 x [32 x [2 x i16]]], [512 x %struct.DCALbrTone], i32, ptr, ptr, ptr, ptr, [8 x i8] }
%struct.GetBitContext = type { ptr, ptr, i32, i32, i32 }
%struct.DCALbrTone = type { i8, i8, i8, i8, [6 x i8], [6 x i8] }

; Function Attrs: cold nounwind optsize uwtable
define i32 @ff_dca_lbr_init(ptr noundef %0) #0 {
  %2 = alloca i32, align 4
  %3 = alloca ptr, align 8
  store ptr %0, ptr %3, align 8, !tbaa !12
  %4 = call ptr @avpriv_float_dsp_alloc(i32 noundef 0)
  %5 = load ptr, ptr %3, align 8, !tbaa !12
  %6 = getelementptr inbounds nuw %struct.DCALbrDecoder, ptr %5, i32 0, i32 51
  store ptr %4, ptr %6, align 8, !tbaa !168
  %7 = icmp ne ptr %4, null
  br i1 %7, label %9, label %8

8:                                                ; preds = %1
  store i32 -12, ptr %2, align 4
  br label %12

9:                                                ; preds = %1
  %10 = load ptr, ptr %3, align 8, !tbaa !12
  %11 = getelementptr inbounds nuw %struct.DCALbrDecoder, ptr %10, i32 0, i32 19
  store i32 1, ptr %11, align 4, !tbaa !176
  store i32 0, ptr %2, align 4
  br label %12

12:                                               ; preds = %9, %8
  %13 = load i32, ptr %2, align 4
  ret i32 %13
}