; Function Attrs: cold nounwind optsize uwtable
define range(i32 -12, 1) i32 @ff_dca_lbr_init(ptr noundef writeonly captures(none) initializes((22232, 22240)) %0) local_unnamed_addr #7 {
  %2 = tail call ptr @avpriv_float_dsp_alloc(i32 noundef 0) #12
  %3 = getelementptr inbounds nuw i8, ptr %0, i64 22232
  store ptr %2, ptr %3, align 8, !tbaa !168
  %.not = icmp eq ptr %2, null
  br i1 %.not, label %6, label %4

4:                                                ; preds = %1
  %5 = getelementptr inbounds nuw i8, ptr %0, i64 108
  store i32 1, ptr %5, align 4, !tbaa !133
  br label %6

6:                                                ; preds = %1, %4
  %.0 = phi i32 [ 0, %4 ], [ -12, %1 ]
  ret i32 %.0
}